; ModuleID = 'autocfg_5a817a050a373823_1.49cd2b650d7728ba-cgu.0'
source_filename = "autocfg_5a817a050a373823_1.49cd2b650d7728ba-cgu.0"
target datalayout = "e-m:e-p270:32:32-p271:32:32-p272:64:64-i64:64-i128:128-f80:128-n8:16:32:64-S128"
target triple = "x86_64-unknown-linux-gnu"

; core::f64::<impl f64>::to_int_unchecked
; Function Attrs: inlinehint nonlazybind uwtable
define i32 @"_ZN4core3f6421_$LT$impl$u20$f64$GT$16to_int_unchecked17h817dce50c804243fE"(double %self) unnamed_addr #0 {
start:
; call <f64 as core::convert::num::FloatToInt<i32>>::to_int_unchecked
  %_0 = call i32 @"_ZN65_$LT$f64$u20$as$u20$core..convert..num..FloatToInt$LT$i32$GT$$GT$16to_int_unchecked17hfab3b4d819947c56E"(double %self)
  ret i32 %_0
}

; <f64 as core::convert::num::FloatToInt<i32>>::to_int_unchecked
; Function Attrs: inlinehint nonlazybind uwtable
define internal i32 @"_ZN65_$LT$f64$u20$as$u20$core..convert..num..FloatToInt$LT$i32$GT$$GT$16to_int_unchecked17hfab3b4d819947c56E"(double %self) unnamed_addr #0 {
start:
  %0 = alloca [4 x i8], align 4
  %1 = fptosi double %self to i32
  store i32 %1, ptr %0, align 4
  %_0 = load i32, ptr %0, align 4
  ret i32 %_0
}

; autocfg_5a817a050a373823_1::probe
; Function Attrs: nonlazybind uwtable
define void @_ZN26autocfg_5a817a050a373823_15probe17hcc664d7043a36df8E() unnamed_addr #1 {
start:
; call core::f64::<impl f64>::to_int_unchecked
  %_1 = call i32 @"_ZN4core3f6421_$LT$impl$u20$f64$GT$16to_int_unchecked17h817dce50c804243fE"(double 1.000000e+00)
  ret void
}

attributes #0 = { inlinehint nonlazybind uwtable "probe-stack"="inline-asm" "target-cpu"="x86-64" }
attributes #1 = { nonlazybind uwtable "probe-stack"="inline-asm" "target-cpu"="x86-64" }

!llvm.module.flags = !{!0, !1}
!llvm.ident = !{!2}

!0 = !{i32 8, !"PIC Level", i32 2}
!1 = !{i32 2, !"RtLibUseGOT", i32 1}
!2 = !{!"rustc version 1.79.0 (129f3b996 2024-06-10)"}
